target datalayout = "e-m:e-p270:32:32-p271:32:32-p272:64:64-i64:64-i128:128-f80:128-n8:16:32:64-S128"
target triple = "x86_64-pc-linux-gnu"

%struct.ident_t = type { i32, i32, i32, i32, ptr }

@1 = private unnamed_addr constant %struct.ident_t { i32 0, i32 514, i32 0, i32 22, ptr @0 }, align 8
@.gomp_critical_user_.reduction.var = common global [8 x i32] zeroinitializer, align 8
@3 = private unnamed_addr constant %struct.ident_t { i32 0, i32 18, i32 0, i32 22, ptr @0 }, align 8

; Function Attrs: norecurse nounwind uwtable
define internal void @_ZN8LightGBM19GradientDiscretizer22RenewIntGradTreeOutputEPNS_4TreeEPKNS_6ConfigEPKNS_13DataPartitionEPKfSA_RKSt8functionIFiiEE.omp_outlined(ptr noalias noundef %0, ptr noalias noundef %1, ptr noundef nonnull align 4 dereferenceable(4) %2, ptr noundef nonnull align 8 dereferenceable(8) %3, ptr noundef nonnull align 8 dereferenceable(8) %4, ptr noundef nonnull align 8 dereferenceable(8) %5, ptr noundef nonnull align 8 dereferenceable(8) %6, ptr noundef nonnull align 8 dereferenceable(8) %7) #7 {
  %9 = alloca ptr, align 8
  %10 = alloca ptr, align 8
  %11 = alloca ptr, align 8
  %12 = alloca ptr, align 8
  %13 = alloca ptr, align 8
  %14 = alloca ptr, align 8
  %15 = alloca ptr, align 8
  %16 = alloca ptr, align 8
  %17 = alloca i32, align 4
  %18 = alloca i32, align 4
  %19 = alloca i32, align 4
  %20 = alloca i32, align 4
  %21 = alloca i32, align 4
  %22 = alloca i32, align 4
  %23 = alloca i32, align 4
  %24 = alloca i32, align 4
  %25 = alloca double, align 8
  %26 = alloca double, align 8
  %27 = alloca i32, align 4
  %28 = alloca i32, align 4
  %29 = alloca float, align 4
  %30 = alloca float, align 4
  %31 = alloca [2 x ptr], align 8
  store ptr %0, ptr %9, align 8
  store ptr %1, ptr %10, align 8
  store ptr %2, ptr %11, align 8
  store ptr %3, ptr %12, align 8
  store ptr %4, ptr %13, align 8
  store ptr %5, ptr %14, align 8
  store ptr %6, ptr %15, align 8
  store ptr %7, ptr %16, align 8
  %32 = load ptr, ptr %11, align 8
  %33 = load ptr, ptr %12, align 8
  %34 = load ptr, ptr %13, align 8
  %35 = load ptr, ptr %14, align 8
  %36 = load ptr, ptr %15, align 8
  %37 = load ptr, ptr %16, align 8
  %38 = load i32, ptr %32, align 4
  store i32 %38, ptr %18, align 4
  %39 = load i32, ptr %18, align 4
  %40 = sub nsw i32 %39, 0
  %41 = sdiv i32 %40, 1
  %42 = sub nsw i32 %41, 1
  store i32 %42, ptr %19, align 4
  store i32 0, ptr %20, align 4
  %43 = load i32, ptr %18, align 4
  %44 = icmp slt i32 0, %43
  br i1 %44, label %45, label %116

45:                                               ; preds = %8
  store i32 0, ptr %21, align 4
  %46 = load i32, ptr %19, align 4
  store i32 %46, ptr %22, align 4
  store i32 1, ptr %23, align 4
  store i32 0, ptr %24, align 4
  store double 0.000000e+00, ptr %25, align 8
  store double 0.000000e+00, ptr %26, align 8
  %47 = load ptr, ptr %9, align 8
  %48 = load i32, ptr %47, align 4
  call void @__kmpc_for_static_init_4(ptr @1, i32 %48, i32 34, ptr %24, ptr %21, ptr %22, ptr %23, i32 1, i32 1)
  %49 = load i32, ptr %22, align 4
  %50 = load i32, ptr %19, align 4
  %51 = icmp sgt i32 %49, %50
  br i1 %51, label %52, label %54

52:                                               ; preds = %45
  %53 = load i32, ptr %19, align 4
  br label %56

54:                                               ; preds = %45
  %55 = load i32, ptr %22, align 4
  br label %56

56:                                               ; preds = %54, %52
  %57 = phi i32 [ %53, %52 ], [ %55, %54 ]
  store i32 %57, ptr %22, align 4
  %58 = load i32, ptr %21, align 4
  store i32 %58, ptr %17, align 4
  br label %59

59:                                               ; preds = %91, %56
  %60 = load i32, ptr %17, align 4
  %61 = load i32, ptr %22, align 4
  %62 = icmp sle i32 %60, %61
  br i1 %62, label %63, label %94

63:                                               ; preds = %59
  %64 = load i32, ptr %17, align 4
  %65 = mul nsw i32 %64, 1
  %66 = add nsw i32 0, %65
  store i32 %66, ptr %27, align 4
  %67 = load ptr, ptr %33, align 8
  %68 = load i32, ptr %27, align 4
  %69 = sext i32 %68 to i64
  %70 = getelementptr inbounds i32, ptr %67, i64 %69
  %71 = load i32, ptr %70, align 4
  store i32 %71, ptr %28, align 4
  %72 = load ptr, ptr %34, align 8
  %73 = load i32, ptr %28, align 4
  %74 = sext i32 %73 to i64
  %75 = getelementptr inbounds float, ptr %72, i64 %74
  %76 = load float, ptr %75, align 4
  store float %76, ptr %29, align 4
  %77 = load ptr, ptr %35, align 8
  %78 = load i32, ptr %28, align 4
  %79 = sext i32 %78 to i64
  %80 = getelementptr inbounds float, ptr %77, i64 %79
  %81 = load float, ptr %80, align 4
  store float %81, ptr %30, align 4
  %82 = load float, ptr %29, align 4
  %83 = fpext float %82 to double
  %84 = load double, ptr %25, align 8
  %85 = fadd double %84, %83
  store double %85, ptr %25, align 8
  %86 = load float, ptr %30, align 4
  %87 = fpext float %86 to double
  %88 = load double, ptr %26, align 8
  %89 = fadd double %88, %87
  store double %89, ptr %26, align 8
  br label %90

90:                                               ; preds = %63
  br label %91

91:                                               ; preds = %90
  %92 = load i32, ptr %17, align 4
  %93 = add nsw i32 %92, 1
  store i32 %93, ptr %17, align 4
  br label %59

94:                                               ; preds = %59
  br label %95

95:                                               ; preds = %94
  %96 = load ptr, ptr %9, align 8
  %97 = load i32, ptr %96, align 4
  call void @__kmpc_for_static_fini(ptr @1, i32 %97)
  %98 = getelementptr inbounds [2 x ptr], ptr %31, i64 0, i64 0
  store ptr %25, ptr %98, align 8
  %99 = getelementptr inbounds [2 x ptr], ptr %31, i64 0, i64 1
  store ptr %26, ptr %99, align 8
  %100 = load ptr, ptr %9, align 8
  %101 = load i32, ptr %100, align 4
  %102 = call i32 @__kmpc_reduce_nowait(ptr @3, i32 %101, i32 2, i64 16, ptr %31, ptr @_ZN8LightGBM19GradientDiscretizer22RenewIntGradTreeOutputEPNS_4TreeEPKNS_6ConfigEPKNS_13DataPartitionEPKfSA_RKSt8functionIFiiEE.omp_outlined.omp.reduction.reduction_func, ptr @.gomp_critical_user_.reduction.var)
  switch i32 %102, label %115 [
    i32 1, label %103
    i32 2, label %110
  ]

103:                                              ; preds = %95
  %104 = load double, ptr %36, align 8
  %105 = load double, ptr %25, align 8
  %106 = fadd double %104, %105
  store double %106, ptr %36, align 8
  %107 = load double, ptr %37, align 8
  %108 = load double, ptr %26, align 8
  %109 = fadd double %107, %108
  store double %109, ptr %37, align 8
  call void @__kmpc_end_reduce_nowait(ptr @3, i32 %101, ptr @.gomp_critical_user_.reduction.var)
  br label %115

110:                                              ; preds = %95
  %111 = load double, ptr %25, align 8
  %112 = atomicrmw fadd ptr %36, double %111 monotonic, align 8
  %113 = load double, ptr %26, align 8
  %114 = atomicrmw fadd ptr %37, double %113 monotonic, align 8
  br label %115

115:                                              ; preds = %110, %103, %95
  br label %116

116:                                              ; preds = %115, %8
  ret void
}