; Function Attrs: norecurse nounwind uwtable
define internal void @_ZN8LightGBM19GradientDiscretizer22RenewIntGradTreeOutputEPNS_4TreeEPKNS_6ConfigEPKNS_13DataPartitionEPKfSA_RKSt8functionIFiiEE.omp_outlined(ptr noalias nocapture noundef readonly %0, ptr noalias nocapture readnone %1, ptr nocapture noundef nonnull readonly align 4 dereferenceable(4) %2, ptr nocapture noundef nonnull readonly align 8 dereferenceable(8) %3, ptr nocapture noundef nonnull readonly align 8 dereferenceable(8) %4, ptr nocapture noundef nonnull readonly align 8 dereferenceable(8) %5, ptr nocapture noundef nonnull align 8 dereferenceable(8) %6, ptr nocapture noundef nonnull align 8 dereferenceable(8) %7) #6 {
  %9 = alloca i32, align 4
  %10 = alloca i32, align 4
  %11 = alloca i32, align 4
  %12 = alloca i32, align 4
  %13 = alloca double, align 8
  %14 = alloca double, align 8
  %15 = alloca [2 x ptr], align 8
  %16 = load i32, ptr %2, align 4
  %17 = icmp sgt i32 %16, 0
  br i1 %17, label %18, label %58

18:                                               ; preds = %8
  %19 = add nsw i32 %16, -1
  store i32 0, ptr %9, align 4
  store i32 %19, ptr %10, align 4
  store i32 1, ptr %11, align 4
  store i32 0, ptr %12, align 4
  store double 0.000000e+00, ptr %13, align 8
  store double 0.000000e+00, ptr %14, align 8
  %20 = load i32, ptr %0, align 4
  call void @__kmpc_for_static_init_4(ptr nonnull @1, i32 %20, i32 34, ptr nonnull %12, ptr nonnull %9, ptr nonnull %10, ptr nonnull %11, i32 1, i32 1)
  %21 = load i32, ptr %10, align 4
  %22 = call i32 @llvm.smin.i32(i32 %21, i32 %19)
  store i32 %22, ptr %10, align 4
  %23 = load i32, ptr %9, align 4
  %.not22 = icmp sgt i32 %23, %22
  br i1 %.not22, label %._crit_edge, label %.lr.ph

.lr.ph:                                           ; preds = %18
  %24 = load ptr, ptr %3, align 8
  %25 = load ptr, ptr %4, align 8
  %26 = load ptr, ptr %5, align 8
  %27 = sext i32 %23 to i64
  %28 = add nsw i32 %22, 1
  br label %29

29:                                               ; preds = %.lr.ph, %29
  %indvars.iv = phi i64 [ %27, %.lr.ph ], [ %indvars.iv.next, %29 ]
  %30 = phi <2 x double> [ zeroinitializer, %.lr.ph ], [ %41, %29 ]
  %31 = getelementptr inbounds i32, ptr %24, i64 %indvars.iv
  %32 = load i32, ptr %31, align 4
  %33 = sext i32 %32 to i64
  %34 = getelementptr inbounds float, ptr %25, i64 %33
  %35 = load float, ptr %34, align 4
  %36 = getelementptr inbounds float, ptr %26, i64 %33
  %37 = load float, ptr %36, align 4
  %38 = insertelement <2 x float> poison, float %35, i64 0
  %39 = insertelement <2 x float> %38, float %37, i64 1
  %40 = fpext <2 x float> %39 to <2 x double>
  %41 = fadd <2 x double> %30, %40
  %42 = extractelement <2 x double> %41, i64 0
  store double %42, ptr %13, align 8
  %43 = extractelement <2 x double> %41, i64 1
  store double %43, ptr %14, align 8
  %indvars.iv.next = add nsw i64 %indvars.iv, 1
  %lftr.wideiv = trunc i64 %indvars.iv.next to i32
  %exitcond.not = icmp eq i32 %28, %lftr.wideiv
  br i1 %exitcond.not, label %._crit_edge, label %29

._crit_edge:                                      ; preds = %29, %18
  call void @__kmpc_for_static_fini(ptr nonnull @1, i32 %20)
  store ptr %13, ptr %15, align 8
  %44 = getelementptr inbounds i8, ptr %15, i64 8
  store ptr %14, ptr %44, align 8
  %45 = call i32 @__kmpc_reduce_nowait(ptr nonnull @3, i32 %20, i32 2, i64 16, ptr nonnull %15, ptr nonnull @_ZN8LightGBM19GradientDiscretizer22RenewIntGradTreeOutputEPNS_4TreeEPKNS_6ConfigEPKNS_13DataPartitionEPKfSA_RKSt8functionIFiiEE.omp_outlined.omp.reduction.reduction_func, ptr nonnull @.gomp_critical_user_.reduction.var)
  switch i32 %45, label %58 [
    i32 1, label %46
    i32 2, label %53
  ]

46:                                               ; preds = %._crit_edge
  %47 = load double, ptr %6, align 8
  %48 = load double, ptr %13, align 8
  %49 = fadd double %47, %48
  store double %49, ptr %6, align 8
  %50 = load double, ptr %7, align 8
  %51 = load double, ptr %14, align 8
  %52 = fadd double %50, %51
  store double %52, ptr %7, align 8
  call void @__kmpc_end_reduce_nowait(ptr nonnull @3, i32 %20, ptr nonnull @.gomp_critical_user_.reduction.var)
  br label %58

53:                                               ; preds = %._crit_edge
  %54 = load double, ptr %13, align 8
  %55 = atomicrmw fadd ptr %6, double %54 monotonic, align 8
  %56 = load double, ptr %14, align 8
  %57 = atomicrmw fadd ptr %7, double %56 monotonic, align 8
  br label %58

58:                                               ; preds = %._crit_edge, %46, %53, %8
  ret void
}